; Function Attrs: nounwind uwtable
define zeroext i8 @l_Lean_Server_Completion_matchNamespace(ptr noundef %0, ptr noundef %1, i8 noundef zeroext %2) local_unnamed_addr #0 {
  %4 = icmp eq i8 %2, 0
  br i1 %4, label %5, label %38

5:                                                ; preds = %3
  %6 = ptrtoint ptr %0 to i64
  %7 = and i64 %6, 1
  %.not.i = icmp eq i64 %7, 0
  br i1 %.not.i, label %11, label %8

8:                                                ; preds = %5
  %9 = lshr i64 %6, 1
  %10 = trunc i64 %9 to i32
  br label %lean_obj_tag.exit

11:                                               ; preds = %5
  %12 = getelementptr i8, ptr %0, i64 4
  %.val.i = load i32, ptr %12, align 4
  %13 = lshr i32 %.val.i, 24
  br label %lean_obj_tag.exit

lean_obj_tag.exit:                                ; preds = %8, %11
  %.0.i = phi i32 [ %10, %8 ], [ %13, %11 ]
  %14 = icmp eq i32 %.0.i, 1
  br i1 %14, label %15, label %43

15:                                               ; preds = %lean_obj_tag.exit
  %16 = ptrtoint ptr %1 to i64
  %17 = and i64 %16, 1
  %.not.i25 = icmp eq i64 %17, 0
  br i1 %.not.i25, label %21, label %18

18:                                               ; preds = %15
  %19 = lshr i64 %16, 1
  %20 = trunc i64 %19 to i32
  br label %lean_obj_tag.exit28

21:                                               ; preds = %15
  %22 = getelementptr i8, ptr %1, i64 4
  %.val.i27 = load i32, ptr %22, align 4
  %23 = lshr i32 %.val.i27, 24
  br label %lean_obj_tag.exit28

lean_obj_tag.exit28:                              ; preds = %18, %21
  %.0.i26 = phi i32 [ %20, %18 ], [ %23, %21 ]
  %24 = icmp eq i32 %.0.i26, 1
  br i1 %24, label %25, label %43

25:                                               ; preds = %lean_obj_tag.exit28
  %26 = getelementptr inbounds nuw i8, ptr %0, i64 8
  %27 = load ptr, ptr %26, align 8, !tbaa !4
  %28 = getelementptr inbounds nuw i8, ptr %0, i64 16
  %29 = load ptr, ptr %28, align 8, !tbaa !4
  %30 = getelementptr inbounds nuw i8, ptr %1, i64 8
  %31 = load ptr, ptr %30, align 8, !tbaa !4
  %32 = getelementptr inbounds nuw i8, ptr %1, i64 16
  %33 = load ptr, ptr %32, align 8, !tbaa !4
  %34 = tail call zeroext i8 @lean_name_eq(ptr noundef %27, ptr noundef %31) #5
  %35 = icmp eq i8 %34, 0
  br i1 %35, label %43, label %36

36:                                               ; preds = %25
  %37 = tail call zeroext i8 @l_String_charactersIn_go(ptr noundef %33, ptr noundef %29, ptr noundef nonnull inttoptr (i64 1 to ptr), ptr noundef nonnull inttoptr (i64 1 to ptr)) #5
  br label %43

38:                                               ; preds = %3
  %39 = tail call zeroext i8 @lean_name_eq(ptr noundef %1, ptr noundef %0) #5
  %40 = icmp eq i8 %39, 0
  br i1 %40, label %41, label %43

41:                                               ; preds = %38
  %42 = tail call zeroext i8 @l_Lean_Name_isPrefixOf(ptr noundef %1, ptr noundef %0) #5
  br label %43

43:                                               ; preds = %41, %38, %lean_obj_tag.exit, %lean_obj_tag.exit28, %36, %25
  %.1 = phi i8 [ %37, %36 ], [ 0, %25 ], [ 0, %lean_obj_tag.exit28 ], [ 0, %lean_obj_tag.exit ], [ %42, %41 ], [ 0, %38 ]
  ret i8 %.1
}